target datalayout = "e-m:e-p270:32:32-p271:32:32-p272:64:64-i64:64-i128:128-f80:128-n8:16:32:64-S128"
target triple = "x86_64-pc-linux-gnu"

%"struct.pkpy::Str" = type { i32, i8, ptr, [16 x i8] }
%"struct.std::pair" = type <{ ptr, i32, [4 x i8] }>
%"struct.pkpy::SStream" = type <{ %"struct.pkpy::pod_vector", i32, [4 x i8] }>
%"struct.pkpy::pod_vector" = type { i32, i32, ptr }

@_ZN4pkpy3StrC1ESt4pairIPciE = unnamed_addr alias void (ptr, ptr, i32), ptr @_ZN4pkpy3StrC2ESt4pairIPciE

; Function Attrs: noreturn nounwind uwtable
define linkonce_odr hidden void @__clang_call_terminate(ptr noundef %0) #8 comdat {
  %2 = call ptr @__cxa_begin_catch(ptr %0) #3
  call void @_ZSt9terminatev() #14
  unreachable
}

; Function Attrs: mustprogress nounwind uwtable
define linkonce_odr void @_ZNSt4pairIPciEC2IRS0_RiTnNSt9enable_ifIXaaclsr5_PCCPE22_MoveConstructiblePairIT_T0_EEclsr5_PCCPE30_ImplicitlyMoveConvertiblePairIS6_S7_EEEbE4typeELb1EEEOS6_OS7_(ptr noundef nonnull align 8 dereferenceable(12) %0, ptr noundef nonnull align 8 dereferenceable(8) %1, ptr noundef nonnull align 4 dereferenceable(4) %2) unnamed_addr #5 comdat align 2 {
  %4 = alloca ptr, align 8
  %5 = alloca ptr, align 8
  %6 = alloca ptr, align 8
  store ptr %0, ptr %4, align 8
  store ptr %1, ptr %5, align 8
  store ptr %2, ptr %6, align 8
  %7 = load ptr, ptr %4, align 8
  %8 = getelementptr inbounds %"struct.std::pair", ptr %7, i32 0, i32 0
  %9 = load ptr, ptr %5, align 8
  %10 = load ptr, ptr %9, align 8
  store ptr %10, ptr %8, align 8
  %11 = getelementptr inbounds %"struct.std::pair", ptr %7, i32 0, i32 1
  %12 = load ptr, ptr %6, align 8
  %13 = load i32, ptr %12, align 4
  store i32 %13, ptr %11, align 8
  ret void
}

; Function Attrs: mustprogress nounwind uwtable
define linkonce_odr void @_ZN4pkpy10pod_vectorIcLi2EED2Ev(ptr noundef nonnull align 8 dereferenceable(16) %0) unnamed_addr #5 comdat align 2 {
  %2 = alloca ptr, align 8
  store ptr %0, ptr %2, align 8
  %3 = load ptr, ptr %2, align 8
  %4 = getelementptr inbounds %"struct.pkpy::pod_vector", ptr %3, i32 0, i32 2
  %5 = load ptr, ptr %4, align 8
  %6 = icmp ne ptr %5, null
  br i1 %6, label %7, label %10

7:                                                ; preds = %1
  %8 = getelementptr inbounds %"struct.pkpy::pod_vector", ptr %3, i32 0, i32 2
  %9 = load ptr, ptr %8, align 8
  call void @_ZN4pkpy14pool64_deallocEPv(ptr noundef %9) #3
  br label %10

10:                                               ; preds = %7, %1
  ret void
}

; Function Attrs: mustprogress nounwind uwtable
define linkonce_odr { ptr, i32 } @_ZN4pkpy10pod_vectorIcLi2EE6detachEv(ptr noundef nonnull align 8 dereferenceable(16) %0) #5 comdat align 2 personality ptr @__gxx_personality_v0 {
  %2 = alloca %"struct.std::pair", align 8
  %3 = alloca ptr, align 8
  %4 = alloca ptr, align 8
  %5 = alloca i32, align 4
  store ptr %0, ptr %3, align 8
  %6 = load ptr, ptr %3, align 8
  %7 = getelementptr inbounds %"struct.pkpy::pod_vector", ptr %6, i32 0, i32 2
  %8 = load ptr, ptr %7, align 8
  store ptr %8, ptr %4, align 8
  %9 = getelementptr inbounds %"struct.pkpy::pod_vector", ptr %6, i32 0, i32 0
  %10 = load i32, ptr %9, align 8
  store i32 %10, ptr %5, align 4
  %11 = getelementptr inbounds %"struct.pkpy::pod_vector", ptr %6, i32 0, i32 2
  store ptr null, ptr %11, align 8
  %12 = getelementptr inbounds %"struct.pkpy::pod_vector", ptr %6, i32 0, i32 0
  store i32 0, ptr %12, align 8
  invoke void @_ZNSt4pairIPciEC2IRS0_RiTnNSt9enable_ifIXaaclsr5_PCCPE22_MoveConstructiblePairIT_T0_EEclsr5_PCCPE30_ImplicitlyMoveConvertiblePairIS6_S7_EEEbE4typeELb1EEEOS6_OS7_(ptr noundef nonnull align 8 dereferenceable(12) %2, ptr noundef nonnull align 8 dereferenceable(8) %4, ptr noundef nonnull align 4 dereferenceable(4) %5)
          to label %13 unwind label %15

13:                                               ; preds = %1
  %14 = load { ptr, i32 }, ptr %2, align 8
  ret { ptr, i32 } %14

15:                                               ; preds = %1
  %16 = landingpad { ptr, i32 }
          catch ptr null
  %17 = extractvalue { ptr, i32 } %16, 0
  call void @__clang_call_terminate(ptr %17) #14
  unreachable
}

; Function Attrs: mustprogress nounwind uwtable
define linkonce_odr noundef nonnull align 1 dereferenceable(1) ptr @_ZN4pkpy10pod_vectorIcLi2EEixEi(ptr noundef nonnull align 8 dereferenceable(16) %0, i32 noundef %1) #5 comdat align 2 {
  %3 = alloca ptr, align 8
  %4 = alloca i32, align 4
  store ptr %0, ptr %3, align 8
  store i32 %1, ptr %4, align 4
  %5 = load ptr, ptr %3, align 8
  %6 = getelementptr inbounds %"struct.pkpy::pod_vector", ptr %5, i32 0, i32 2
  %7 = load ptr, ptr %6, align 8
  %8 = load i32, ptr %4, align 4
  %9 = sext i32 %8 to i64
  %10 = getelementptr inbounds i8, ptr %7, i64 %9
  ret ptr %10
}

; Function Attrs: mustprogress nounwind uwtable
define linkonce_odr void @_ZN4pkpy10pod_vectorIcLi2EE7reserveEi(ptr noundef nonnull align 8 dereferenceable(16) %0, i32 noundef %1) #5 comdat align 2 {
  %3 = alloca ptr, align 8
  %4 = alloca i32, align 4
  %5 = alloca ptr, align 8
  store ptr %0, ptr %3, align 8
  store i32 %1, ptr %4, align 4
  %6 = load ptr, ptr %3, align 8
  %7 = load i32, ptr %4, align 4
  %8 = getelementptr inbounds %"struct.pkpy::pod_vector", ptr %6, i32 0, i32 1
  %9 = load i32, ptr %8, align 4
  %10 = icmp sle i32 %7, %9
  br i1 %10, label %11, label %12

11:                                               ; preds = %2
  br label %34

12:                                               ; preds = %2
  %13 = load i32, ptr %4, align 4
  %14 = getelementptr inbounds %"struct.pkpy::pod_vector", ptr %6, i32 0, i32 1
  store i32 %13, ptr %14, align 4
  %15 = getelementptr inbounds %"struct.pkpy::pod_vector", ptr %6, i32 0, i32 2
  %16 = load ptr, ptr %15, align 8
  store ptr %16, ptr %5, align 8
  %17 = getelementptr inbounds %"struct.pkpy::pod_vector", ptr %6, i32 0, i32 1
  %18 = load i32, ptr %17, align 4
  %19 = mul nsw i32 %18, 1
  %20 = sext i32 %19 to i64
  %21 = call noundef ptr @_ZN4pkpy12pool64_allocEm(i64 noundef %20) #3
  %22 = getelementptr inbounds %"struct.pkpy::pod_vector", ptr %6, i32 0, i32 2
  store ptr %21, ptr %22, align 8
  %23 = load ptr, ptr %5, align 8
  %24 = icmp ne ptr %23, null
  br i1 %24, label %25, label %34

25:                                               ; preds = %12
  %26 = getelementptr inbounds %"struct.pkpy::pod_vector", ptr %6, i32 0, i32 2
  %27 = load ptr, ptr %26, align 8
  %28 = load ptr, ptr %5, align 8
  %29 = getelementptr inbounds %"struct.pkpy::pod_vector", ptr %6, i32 0, i32 0
  %30 = load i32, ptr %29, align 8
  %31 = mul nsw i32 1, %30
  %32 = sext i32 %31 to i64
  call void @llvm.memcpy.p0.p0.i64(ptr align 1 %27, ptr align 1 %28, i64 %32, i1 false)
  %33 = load ptr, ptr %5, align 8
  call void @_ZN4pkpy14pool64_deallocEPv(ptr noundef %33) #3
  br label %34

34:                                               ; preds = %25, %12, %11
  ret void
}

; Function Attrs: mustprogress nounwind uwtable
define linkonce_odr noundef i32 @_ZNK4pkpy10pod_vectorIcLi2EE4sizeEv(ptr noundef nonnull align 8 dereferenceable(16) %0) #5 comdat align 2 {
  %2 = alloca ptr, align 8
  store ptr %0, ptr %2, align 8
  %3 = load ptr, ptr %2, align 8
  %4 = getelementptr inbounds %"struct.pkpy::pod_vector", ptr %3, i32 0, i32 0
  %5 = load i32, ptr %4, align 8
  ret i32 %5
}

; Function Attrs: mustprogress nounwind uwtable
define linkonce_odr void @_ZN4pkpy10pod_vectorIcLi2EEC2Ev(ptr noundef nonnull align 8 dereferenceable(16) %0) unnamed_addr #5 comdat align 2 {
  %2 = alloca ptr, align 8
  store ptr %0, ptr %2, align 8
  %3 = load ptr, ptr %2, align 8
  %4 = getelementptr inbounds %"struct.pkpy::pod_vector", ptr %3, i32 0, i32 0
  store i32 0, ptr %4, align 8
  %5 = getelementptr inbounds %"struct.pkpy::pod_vector", ptr %3, i32 0, i32 1
  store i32 64, ptr %5, align 4
  %6 = getelementptr inbounds %"struct.pkpy::pod_vector", ptr %3, i32 0, i32 1
  %7 = load i32, ptr %6, align 4
  %8 = mul nsw i32 %7, 1
  %9 = sext i32 %8 to i64
  %10 = call noundef ptr @_ZN4pkpy12pool64_allocEm(i64 noundef %9) #3
  %11 = getelementptr inbounds %"struct.pkpy::pod_vector", ptr %3, i32 0, i32 2
  store ptr %10, ptr %11, align 8
  ret void
}

; Function Attrs: mustprogress nounwind uwtable
define linkonce_odr void @_ZN4pkpy7SStreamD2Ev(ptr noundef nonnull align 8 dereferenceable(20) %0) unnamed_addr #5 comdat align 2 {
  %2 = alloca ptr, align 8
  store ptr %0, ptr %2, align 8
  %3 = load ptr, ptr %2, align 8
  %4 = getelementptr inbounds %"struct.pkpy::SStream", ptr %3, i32 0, i32 0
  call void @_ZN4pkpy10pod_vectorIcLi2EED2Ev(ptr noundef nonnull align 8 dereferenceable(16) %4) #3
  ret void
}

; Function Attrs: mustprogress uwtable
define void @_ZN4pkpy7SStream3strEv(ptr dead_on_unwind noalias writable sret(%"struct.pkpy::Str") align 8 %0, ptr noundef nonnull align 8 dereferenceable(20) %1) #4 align 2 {
  %3 = alloca ptr, align 8
  %4 = alloca ptr, align 8
  %5 = alloca %"struct.std::pair", align 8
  store ptr %0, ptr %3, align 8
  store ptr %1, ptr %4, align 8
  %6 = load ptr, ptr %4, align 8
  %7 = getelementptr inbounds %"struct.pkpy::SStream", ptr %6, i32 0, i32 0
  %8 = getelementptr inbounds %"struct.pkpy::SStream", ptr %6, i32 0, i32 0
  %9 = call noundef i32 @_ZNK4pkpy10pod_vectorIcLi2EE4sizeEv(ptr noundef nonnull align 8 dereferenceable(16) %8)
  %10 = add nsw i32 %9, 1
  call void @_ZN4pkpy10pod_vectorIcLi2EE7reserveEi(ptr noundef nonnull align 8 dereferenceable(16) %7, i32 noundef %10)
  %11 = getelementptr inbounds %"struct.pkpy::SStream", ptr %6, i32 0, i32 0
  %12 = getelementptr inbounds %"struct.pkpy::SStream", ptr %6, i32 0, i32 0
  %13 = call noundef i32 @_ZNK4pkpy10pod_vectorIcLi2EE4sizeEv(ptr noundef nonnull align 8 dereferenceable(16) %12)
  %14 = call noundef nonnull align 1 dereferenceable(1) ptr @_ZN4pkpy10pod_vectorIcLi2EEixEi(ptr noundef nonnull align 8 dereferenceable(16) %11, i32 noundef %13)
  store i8 0, ptr %14, align 1
  %15 = getelementptr inbounds %"struct.pkpy::SStream", ptr %6, i32 0, i32 0
  %16 = call { ptr, i32 } @_ZN4pkpy10pod_vectorIcLi2EE6detachEv(ptr noundef nonnull align 8 dereferenceable(16) %15) #3
  %17 = getelementptr inbounds { ptr, i32 }, ptr %5, i32 0, i32 0
  %18 = extractvalue { ptr, i32 } %16, 0
  store ptr %18, ptr %17, align 8
  %19 = getelementptr inbounds { ptr, i32 }, ptr %5, i32 0, i32 1
  %20 = extractvalue { ptr, i32 } %16, 1
  store i32 %20, ptr %19, align 8
  %21 = getelementptr inbounds { ptr, i32 }, ptr %5, i32 0, i32 0
  %22 = load ptr, ptr %21, align 8
  %23 = getelementptr inbounds { ptr, i32 }, ptr %5, i32 0, i32 1
  %24 = load i32, ptr %23, align 8
  call void @_ZN4pkpy3StrC1ESt4pairIPciE(ptr noundef nonnull align 8 dereferenceable(32) %0, ptr %22, i32 %24)
  ret void
}

; Function Attrs: mustprogress uwtable
define linkonce_odr void @_ZN4pkpy7SStreamC2Ev(ptr noundef nonnull align 8 dereferenceable(20) %0) unnamed_addr #4 comdat align 2 {
  %2 = alloca ptr, align 8
  store ptr %0, ptr %2, align 8
  %3 = load ptr, ptr %2, align 8
  %4 = getelementptr inbounds %"struct.pkpy::SStream", ptr %3, i32 0, i32 0
  call void @_ZN4pkpy10pod_vectorIcLi2EEC2Ev(ptr noundef nonnull align 8 dereferenceable(16) %4)
  %5 = getelementptr inbounds %"struct.pkpy::SStream", ptr %3, i32 0, i32 1
  store i32 -1, ptr %5, align 8
  ret void
}

; Function Attrs: mustprogress uwtable
define void @_ZNK4pkpy3Str6escapeEb(ptr dead_on_unwind noalias writable sret(%"struct.pkpy::Str") align 8 %0, ptr noundef nonnull align 8 dereferenceable(32) %1, i1 noundef zeroext %2) #4 align 2 personality ptr @__gxx_personality_v0 {
  %4 = alloca ptr, align 8
  %5 = alloca ptr, align 8
  %6 = alloca i8, align 1
  %7 = alloca %"struct.pkpy::SStream", align 8
  %8 = alloca ptr, align 8
  %9 = alloca i32, align 4
  store ptr %0, ptr %4, align 8
  store ptr %1, ptr %5, align 8
  %10 = zext i1 %2 to i8
  store i8 %10, ptr %6, align 1
  %11 = load ptr, ptr %5, align 8
  call void @_ZN4pkpy7SStreamC2Ev(ptr noundef nonnull align 8 dereferenceable(20) %7)
  %12 = load i8, ptr %6, align 1
  %13 = trunc i8 %12 to i1
  invoke void @_ZNK4pkpy3Str7escape_ERNS_7SStreamEb(ptr noundef nonnull align 8 dereferenceable(32) %11, ptr noundef nonnull align 8 dereferenceable(20) %7, i1 noundef zeroext %13)
          to label %14 unwind label %16

14:                                               ; preds = %3
  invoke void @_ZN4pkpy7SStream3strEv(ptr dead_on_unwind writable sret(%"struct.pkpy::Str") align 8 %0, ptr noundef nonnull align 8 dereferenceable(20) %7)
          to label %15 unwind label %16

15:                                               ; preds = %14
  call void @_ZN4pkpy7SStreamD2Ev(ptr noundef nonnull align 8 dereferenceable(20) %7) #3
  ret void

16:                                               ; preds = %14, %3
  %17 = landingpad { ptr, i32 }
          cleanup
  %18 = extractvalue { ptr, i32 } %17, 0
  store ptr %18, ptr %8, align 8
  %19 = extractvalue { ptr, i32 } %17, 1
  store i32 %19, ptr %9, align 4
  call void @_ZN4pkpy7SStreamD2Ev(ptr noundef nonnull align 8 dereferenceable(20) %7) #3
  br label %20

20:                                               ; preds = %16
  %21 = load ptr, ptr %8, align 8
  %22 = load i32, ptr %9, align 4
  %23 = insertvalue { ptr, i32 } poison, ptr %21, 0
  %24 = insertvalue { ptr, i32 } %23, i32 %22, 1
  resume { ptr, i32 } %24
}