; Function Attrs: mustprogress uwtable
define void @_ZNK4pkpy3Str6escapeEb(ptr dead_on_unwind noalias writable sret(%"struct.pkpy::Str") align 8 %0, ptr nocapture noundef nonnull readonly align 8 dereferenceable(32) %1, i1 noundef zeroext %2) local_unnamed_addr #3 align 2 personality ptr @__gxx_personality_v0 {
  %4 = alloca %"struct.pkpy::SStream", align 8
  store i32 0, ptr %4, align 8
  %5 = getelementptr inbounds i8, ptr %4, i64 4
  store i32 64, ptr %5, align 4
  %6 = tail call noundef ptr @_ZN4pkpy12pool64_allocEm(i64 noundef 64) #23
  %7 = getelementptr inbounds i8, ptr %4, i64 8
  store ptr %6, ptr %7, align 8
  %8 = getelementptr inbounds i8, ptr %4, i64 16
  store i32 -1, ptr %8, align 8
  call void @_ZNK4pkpy3Str7escape_ERNS_7SStreamEb(ptr noundef nonnull align 8 dereferenceable(32) %1, ptr noundef nonnull align 8 dereferenceable(20) %4, i1 noundef zeroext %2)
  %9 = load i32, ptr %4, align 8, !noalias !63
  %10 = load i32, ptr %5, align 4, !noalias !63
  %.not.i.not.i = icmp sgt i32 %10, %9
  %.pre5 = load ptr, ptr %7, align 8, !noalias !63
  br i1 %.not.i.not.i, label %_ZN4pkpy10pod_vectorIcLi2EE7reserveEi.exit.i, label %11

11:                                               ; preds = %3
  %12 = add nsw i32 %9, 1
  store i32 %12, ptr %5, align 4, !noalias !63
  %13 = sext i32 %12 to i64
  %14 = call noundef ptr @_ZN4pkpy12pool64_allocEm(i64 noundef %13) #23, !noalias !63
  store ptr %14, ptr %7, align 8, !noalias !63
  %.not6.i.i = icmp eq ptr %.pre5, null
  %.pre1.i = load i32, ptr %4, align 8, !noalias !63
  br i1 %.not6.i.i, label %_ZN4pkpy10pod_vectorIcLi2EE7reserveEi.exit.i, label %15

15:                                               ; preds = %11
  %16 = sext i32 %.pre1.i to i64
  call void @llvm.memcpy.p0.p0.i64(ptr align 1 %14, ptr nonnull align 1 %.pre5, i64 %16, i1 false), !noalias !63
  call void @_ZN4pkpy14pool64_deallocEPv(ptr noundef nonnull %.pre5) #23, !noalias !63
  %.pre.i = load i32, ptr %4, align 8, !noalias !63
  %.pre = load ptr, ptr %7, align 8, !noalias !63
  br label %_ZN4pkpy10pod_vectorIcLi2EE7reserveEi.exit.i

_ZN4pkpy10pod_vectorIcLi2EE7reserveEi.exit.i:     ; preds = %15, %11, %3
  %17 = phi ptr [ %.pre5, %3 ], [ %14, %11 ], [ %.pre, %15 ]
  %18 = phi i32 [ %9, %3 ], [ %.pre1.i, %11 ], [ %.pre.i, %15 ]
  %19 = sext i32 %18 to i64
  %20 = getelementptr inbounds i8, ptr %17, i64 %19
  store i8 0, ptr %20, align 1, !noalias !63
  %21 = load ptr, ptr %7, align 8, !noalias !63
  %22 = load i32, ptr %4, align 8, !noalias !63
  store ptr null, ptr %7, align 8, !noalias !63
  store i32 0, ptr %4, align 8, !noalias !63
  invoke void @_ZN4pkpy3StrC1ESt4pairIPciE(ptr noundef nonnull align 8 dereferenceable(32) %0, ptr %21, i32 %22)
          to label %_ZN4pkpy7SStream3strEv.exit unwind label %25

_ZN4pkpy7SStream3strEv.exit:                      ; preds = %_ZN4pkpy10pod_vectorIcLi2EE7reserveEi.exit.i
  %23 = load ptr, ptr %7, align 8
  %.not.i.i = icmp eq ptr %23, null
  br i1 %.not.i.i, label %_ZN4pkpy7SStreamD2Ev.exit, label %24

24:                                               ; preds = %_ZN4pkpy7SStream3strEv.exit
  call void @_ZN4pkpy14pool64_deallocEPv(ptr noundef nonnull %23) #23
  br label %_ZN4pkpy7SStreamD2Ev.exit

_ZN4pkpy7SStreamD2Ev.exit:                        ; preds = %_ZN4pkpy7SStream3strEv.exit, %24
  ret void

25:                                               ; preds = %_ZN4pkpy10pod_vectorIcLi2EE7reserveEi.exit.i
  %26 = landingpad { ptr, i32 }
          cleanup
  %27 = load ptr, ptr %7, align 8
  %.not.i.i3 = icmp eq ptr %27, null
  br i1 %.not.i.i3, label %_ZN4pkpy7SStreamD2Ev.exit4, label %28

28:                                               ; preds = %25
  call void @_ZN4pkpy14pool64_deallocEPv(ptr noundef nonnull %27) #23
  br label %_ZN4pkpy7SStreamD2Ev.exit4

_ZN4pkpy7SStreamD2Ev.exit4:                       ; preds = %25, %28
  resume { ptr, i32 } %26
}